; Function Attrs: mustprogress uwtable
define void @_ZN3gmx16RestraintManager4Impl3addESt10shared_ptrINS_19IRestraintPotentialEERKNSt7__cxx1112basic_stringIcSt11char_traitsIcESaIcEEE(ptr noundef nonnull align 8 dereferenceable(24) %0, ptr noundef %1, ptr noundef nonnull readnone align 8 captures(none) dereferenceable(32) %2) local_unnamed_addr #3 align 2 {
  %4 = getelementptr inbounds nuw i8, ptr %0, i64 8
  %5 = load ptr, ptr %4, align 8, !tbaa !4
  %6 = getelementptr inbounds nuw i8, ptr %0, i64 16
  %7 = load ptr, ptr %6, align 8, !tbaa !10
  %.not.i = icmp eq ptr %5, %7
  br i1 %.not.i, label %14, label %8

8:                                                ; preds = %3
  %9 = load ptr, ptr %1, align 8, !tbaa !11
  store ptr %9, ptr %5, align 8, !tbaa !11
  %10 = getelementptr inbounds nuw i8, ptr %5, i64 8
  store ptr null, ptr %10, align 8, !tbaa !16
  %11 = getelementptr inbounds nuw i8, ptr %1, i64 8
  %12 = load ptr, ptr %11, align 8, !tbaa !16
  store ptr null, ptr %11, align 8, !tbaa !16
  store ptr %12, ptr %10, align 8, !tbaa !16
  store ptr null, ptr %1, align 8, !tbaa !11
  %13 = getelementptr inbounds nuw i8, ptr %5, i64 16
  store ptr %13, ptr %4, align 8, !tbaa !4
  br label %_ZNSt6vectorISt10shared_ptrIN3gmx19IRestraintPotentialEESaIS3_EE12emplace_backIJS3_EEERS3_DpOT_.exit

14:                                               ; preds = %3
  tail call void @_ZNSt6vectorISt10shared_ptrIN3gmx19IRestraintPotentialEESaIS3_EE17_M_realloc_insertIJS3_EEEvN9__gnu_cxx17__normal_iteratorIPS3_S5_EEDpOT_(ptr noundef nonnull align 8 dereferenceable(24) %0, ptr %5, ptr noundef nonnull align 8 dereferenceable(16) %1)
  br label %_ZNSt6vectorISt10shared_ptrIN3gmx19IRestraintPotentialEESaIS3_EE12emplace_backIJS3_EEERS3_DpOT_.exit

_ZNSt6vectorISt10shared_ptrIN3gmx19IRestraintPotentialEESaIS3_EE12emplace_backIJS3_EEERS3_DpOT_.exit: ; preds = %8, %14
  ret void
}